target datalayout = "e-m:e-p270:32:32-p271:32:32-p272:64:64-i64:64-i128:128-f80:128-n8:16:32:64-S128"
target triple = "x86_64-pc-linux-gnu"

%"struct.std::once_flag" = type { i32 }
%"class.duckdb_re2::RE2::Options" = type <{ i64, i32, i8, i8, i8, i8, i8, i8, i8, i8, i8, i8, i8, i8 }>
%"class.duckdb_re2::RE2" = type <{ ptr, %"class.duckdb_re2::RE2::Options", ptr, ptr, ptr, ptr, i32, i32, %"class.std::__cxx11::basic_string", ptr, ptr, ptr, ptr, %"struct.std::once_flag", %"struct.std::once_flag", %"struct.std::once_flag", [4 x i8] }>
%"class.std::__cxx11::basic_string" = type { %"struct.std::__cxx11::basic_string<char>::_Alloc_hider", i64, %union.anon }
%"struct.std::__cxx11::basic_string<char>::_Alloc_hider" = type { ptr }
%union.anon = type { i64, [8 x i8] }
%"struct.duckdb_re2::EmptyStorage" = type { %"class.std::__cxx11::basic_string", %"class.std::map.32", %"class.std::map" }
%"class.std::map.32" = type { %"class.std::_Rb_tree.33" }
%"class.std::_Rb_tree.33" = type { %"struct.std::_Rb_tree<std::__cxx11::basic_string<char>, std::pair<const std::__cxx11::basic_string<char>, int>, std::_Select1st<std::pair<const std::__cxx11::basic_string<char>, int>>, std::less<std::__cxx11::basic_string<char>>>::_Rb_tree_impl" }
%"struct.std::_Rb_tree<std::__cxx11::basic_string<char>, std::pair<const std::__cxx11::basic_string<char>, int>, std::_Select1st<std::pair<const std::__cxx11::basic_string<char>, int>>, std::less<std::__cxx11::basic_string<char>>>::_Rb_tree_impl" = type { [8 x i8], %"struct.std::_Rb_tree_header" }
%"struct.std::_Rb_tree_header" = type { %"struct.std::_Rb_tree_node_base", i64 }
%"struct.std::_Rb_tree_node_base" = type { i32, ptr, ptr, ptr }
%"class.std::map" = type { %"class.std::_Rb_tree" }
%"class.std::_Rb_tree" = type { %"struct.std::_Rb_tree<int, std::pair<const int, std::__cxx11::basic_string<char>>, std::_Select1st<std::pair<const int, std::__cxx11::basic_string<char>>>, std::less<int>>::_Rb_tree_impl" }
%"struct.std::_Rb_tree<int, std::pair<const int, std::__cxx11::basic_string<char>>, std::_Select1st<std::pair<const int, std::__cxx11::basic_string<char>>>, std::less<int>>::_Rb_tree_impl" = type { [8 x i8], %"struct.std::_Rb_tree_header" }
%class.anon.81 = type { ptr, ptr }
%class.anon.82 = type { i8 }

@_ZN10duckdb_re2L13empty_storageE = internal global [128 x i8] zeroinitializer, align 8
@_ZSt15__once_callable = external thread_local global ptr, align 8

; Function Attrs: inlinehint mustprogress nounwind uwtable
define internal noundef ptr @_ZN10duckdb_re2L18empty_named_groupsB5cxx11Ev() #7 {
  ret ptr getelementptr inbounds nuw (%"struct.duckdb_re2::EmptyStorage", ptr @_ZN10duckdb_re2L13empty_storageE, i32 0, i32 1)
}

; Function Attrs: inlinehint mustprogress uwtable
define internal void @"_ZZNK10duckdb_re23RE220NamedCapturingGroupsB5cxx11EvENK3$_0clEPKS0_"(ptr noundef nonnull align 1 dereferenceable(1) %0, ptr noundef %1) #3 align 2 {
  %3 = alloca ptr, align 8
  %4 = alloca ptr, align 8
  store ptr %0, ptr %3, align 8, !tbaa !81
  store ptr %1, ptr %4, align 8, !tbaa !29
  %5 = load ptr, ptr %4, align 8, !tbaa !29
  %6 = getelementptr inbounds nuw %"class.duckdb_re2::RE2", ptr %5, i32 0, i32 3
  %7 = load ptr, ptr %6, align 8, !tbaa !51
  %8 = icmp ne ptr %7, null
  br i1 %8, label %9, label %16

9:                                                ; preds = %2
  %10 = load ptr, ptr %4, align 8, !tbaa !29
  %11 = getelementptr inbounds nuw %"class.duckdb_re2::RE2", ptr %10, i32 0, i32 3
  %12 = load ptr, ptr %11, align 8, !tbaa !51
  %13 = call noundef ptr @_ZN10duckdb_re26Regexp13NamedCapturesB5cxx11Ev(ptr noundef nonnull align 8 dereferenceable(40) %12)
  %14 = load ptr, ptr %4, align 8, !tbaa !29
  %15 = getelementptr inbounds nuw %"class.duckdb_re2::RE2", ptr %14, i32 0, i32 11
  store ptr %13, ptr %15, align 8, !tbaa !57
  br label %16

16:                                               ; preds = %9, %2
  %17 = load ptr, ptr %4, align 8, !tbaa !29
  %18 = getelementptr inbounds nuw %"class.duckdb_re2::RE2", ptr %17, i32 0, i32 11
  %19 = load ptr, ptr %18, align 8, !tbaa !57
  %20 = icmp eq ptr %19, null
  br i1 %20, label %21, label %25

21:                                               ; preds = %16
  %22 = call noundef ptr @_ZN10duckdb_re2L18empty_named_groupsB5cxx11Ev()
  %23 = load ptr, ptr %4, align 8, !tbaa !29
  %24 = getelementptr inbounds nuw %"class.duckdb_re2::RE2", ptr %23, i32 0, i32 11
  store ptr %22, ptr %24, align 8, !tbaa !57
  br label %25

25:                                               ; preds = %21, %16
  ret void
}

; Function Attrs: mustprogress uwtable
define internal void @"_ZSt13__invoke_implIvZNK10duckdb_re23RE220NamedCapturingGroupsB5cxx11EvE3$_0JPKS1_EET_St14__invoke_otherOT0_DpOT1_"(ptr noundef nonnull align 1 dereferenceable(1) %0, ptr noundef nonnull align 8 dereferenceable(8) %1) #1 {
  %3 = alloca ptr, align 8
  %4 = alloca ptr, align 8
  store ptr %0, ptr %3, align 8, !tbaa !81
  store ptr %1, ptr %4, align 8, !tbaa !94
  %5 = load ptr, ptr %3, align 8, !tbaa !81
  %6 = load ptr, ptr %4, align 8, !tbaa !94
  %7 = load ptr, ptr %6, align 8, !tbaa !29
  call void @"_ZZNK10duckdb_re23RE220NamedCapturingGroupsB5cxx11EvENK3$_0clEPKS0_"(ptr noundef nonnull align 1 dereferenceable(1) %5, ptr noundef %7)
  ret void
}

; Function Attrs: mustprogress uwtable
define internal void @"_ZSt8__invokeIZNK10duckdb_re23RE220NamedCapturingGroupsB5cxx11EvE3$_0JPKS1_EENSt15__invoke_resultIT_JDpT0_EE4typeEOS6_DpOS7_"(ptr noundef nonnull align 1 dereferenceable(1) %0, ptr noundef nonnull align 8 dereferenceable(8) %1) #1 {
  %3 = alloca ptr, align 8
  %4 = alloca ptr, align 8
  store ptr %0, ptr %3, align 8, !tbaa !81
  store ptr %1, ptr %4, align 8, !tbaa !94
  %5 = load ptr, ptr %3, align 8, !tbaa !81
  %6 = load ptr, ptr %4, align 8, !tbaa !94
  call void @"_ZSt13__invoke_implIvZNK10duckdb_re23RE220NamedCapturingGroupsB5cxx11EvE3$_0JPKS1_EET_St14__invoke_otherOT0_DpOT1_"(ptr noundef nonnull align 1 dereferenceable(1) %5, ptr noundef nonnull align 8 dereferenceable(8) %6)
  ret void
}

; Function Attrs: inlinehint mustprogress uwtable
define internal void @"_ZZSt9call_onceIZNK10duckdb_re23RE220NamedCapturingGroupsB5cxx11EvE3$_0JPKS1_EEvRSt9once_flagOT_DpOT0_ENKUlvE_clEv"(ptr noundef nonnull align 8 dereferenceable(16) %0) #3 align 2 {
  %2 = alloca ptr, align 8
  store ptr %0, ptr %2, align 8, !tbaa !81
  %3 = load ptr, ptr %2, align 8
  %4 = getelementptr inbounds nuw %class.anon.81, ptr %3, i32 0, i32 0
  %5 = load ptr, ptr %4, align 8, !tbaa !403
  %6 = getelementptr inbounds nuw %class.anon.81, ptr %3, i32 0, i32 1
  %7 = load ptr, ptr %6, align 8, !tbaa !405
  call void @"_ZSt8__invokeIZNK10duckdb_re23RE220NamedCapturingGroupsB5cxx11EvE3$_0JPKS1_EENSt15__invoke_resultIT_JDpT0_EE4typeEOS6_DpOS7_"(ptr noundef nonnull align 1 dereferenceable(1) %5, ptr noundef nonnull align 8 dereferenceable(8) %7)
  ret void
}

; Function Attrs: inlinehint mustprogress uwtable
define internal void @"_ZZNSt9once_flag18_Prepare_executionC1IZSt9call_onceIZNK10duckdb_re23RE220NamedCapturingGroupsB5cxx11EvE3$_0JPKS4_EEvRS_OT_DpOT0_EUlvE_EERS9_ENKUlvE_clEv"(ptr noundef nonnull align 1 dereferenceable(1) %0) #3 align 2 {
  %2 = alloca ptr, align 8
  store ptr %0, ptr %2, align 8, !tbaa !81
  %3 = call align 8 ptr @llvm.threadlocal.address.p0(ptr align 8 @_ZSt15__once_callable)
  %4 = load ptr, ptr %3, align 8, !tbaa !81
  call void @"_ZZSt9call_onceIZNK10duckdb_re23RE220NamedCapturingGroupsB5cxx11EvE3$_0JPKS1_EEvRSt9once_flagOT_DpOT0_ENKUlvE_clEv"(ptr noundef nonnull align 8 dereferenceable(16) %4)
  ret void
}

; Function Attrs: inlinehint mustprogress uwtable
define internal void @"_ZZNSt9once_flag18_Prepare_executionC1IZSt9call_onceIZNK10duckdb_re23RE220NamedCapturingGroupsB5cxx11EvE3$_0JPKS4_EEvRS_OT_DpOT0_EUlvE_EERS9_ENUlvE_8__invokeEv"() #3 align 2 {
  %1 = alloca %class.anon.82, align 1
  call void @"_ZZNSt9once_flag18_Prepare_executionC1IZSt9call_onceIZNK10duckdb_re23RE220NamedCapturingGroupsB5cxx11EvE3$_0JPKS4_EEvRS_OT_DpOT0_EUlvE_EERS9_ENKUlvE_clEv"(ptr noundef nonnull align 1 dereferenceable(1) %1)
  ret void
}